target datalayout = "e-m:e-p270:32:32-p271:32:32-p272:64:64-i64:64-i128:128-f80:128-n8:16:32:64-S128"
target triple = "x86_64-pc-linux-gnu"

%class.QString = type { %struct.QArrayDataPointer }
%struct.QArrayDataPointer = type { ptr, ptr, i64 }
%class.LBMSubstreamEntry = type { i64, i32, %class.QString, %class.QString, i32, i32, i32, i32, ptr }

; Function Attrs: mustprogress uwtable
define void @_ZN17LBMSubstreamEntry13processPacketEjj(ptr noundef nonnull align 8 dereferenceable(88) %0, i32 noundef %1, i32 noundef %2) #0 align 2 {
  %4 = alloca ptr, align 8
  %5 = alloca i32, align 4
  %6 = alloca i32, align 4
  store ptr %0, ptr %4, align 8
  store i32 %1, ptr %5, align 4
  store i32 %2, ptr %6, align 4
  %7 = load ptr, ptr %4, align 8
  %8 = getelementptr inbounds %class.LBMSubstreamEntry, ptr %7, i32 0, i32 4
  %9 = load i32, ptr %8, align 8
  %10 = load i32, ptr %5, align 4
  %11 = icmp ugt i32 %9, %10
  br i1 %11, label %12, label %15

12:                                               ; preds = %3
  %13 = load i32, ptr %5, align 4
  %14 = getelementptr inbounds %class.LBMSubstreamEntry, ptr %7, i32 0, i32 4
  store i32 %13, ptr %14, align 8
  br label %15

15:                                               ; preds = %12, %3
  %16 = getelementptr inbounds %class.LBMSubstreamEntry, ptr %7, i32 0, i32 5
  %17 = load i32, ptr %16, align 4
  %18 = load i32, ptr %5, align 4
  %19 = icmp ult i32 %17, %18
  br i1 %19, label %20, label %23

20:                                               ; preds = %15
  %21 = load i32, ptr %5, align 4
  %22 = getelementptr inbounds %class.LBMSubstreamEntry, ptr %7, i32 0, i32 5
  store i32 %21, ptr %22, align 4
  br label %23

23:                                               ; preds = %20, %15
  %24 = load i32, ptr %6, align 4
  %25 = getelementptr inbounds %class.LBMSubstreamEntry, ptr %7, i32 0, i32 7
  %26 = load i32, ptr %25, align 4
  %27 = add i32 %26, %24
  store i32 %27, ptr %25, align 4
  %28 = getelementptr inbounds %class.LBMSubstreamEntry, ptr %7, i32 0, i32 6
  %29 = load i32, ptr %28, align 8
  %30 = add i32 %29, 1
  store i32 %30, ptr %28, align 8
  call void @_ZN17LBMSubstreamEntry8fillItemEi(ptr noundef nonnull align 8 dereferenceable(88) %7, i32 noundef 1)
  ret void
}