; Function Attrs: mustprogress uwtable
define void @_ZN17LBMSubstreamEntry13processPacketEjj(ptr noundef nonnull align 8 dereferenceable(88) %0, i32 noundef %1, i32 noundef %2) local_unnamed_addr #0 align 2 {
  %4 = getelementptr inbounds i8, ptr %0, i64 64
  %5 = load i32, ptr %4, align 8
  %6 = icmp ugt i32 %5, %1
  br i1 %6, label %7, label %8

7:                                                ; preds = %3
  store i32 %1, ptr %4, align 8
  br label %8

8:                                                ; preds = %7, %3
  %9 = getelementptr inbounds i8, ptr %0, i64 68
  %10 = load i32, ptr %9, align 4
  %11 = icmp ult i32 %10, %1
  br i1 %11, label %12, label %13

12:                                               ; preds = %8
  store i32 %1, ptr %9, align 4
  br label %13

13:                                               ; preds = %12, %8
  %14 = getelementptr inbounds i8, ptr %0, i64 72
  %15 = load <2 x i32>, ptr %14, align 8
  %16 = insertelement <2 x i32> <i32 1, i32 poison>, i32 %2, i64 1
  %17 = add <2 x i32> %15, %16
  store <2 x i32> %17, ptr %14, align 8
  tail call void @_ZN17LBMSubstreamEntry8fillItemEi(ptr noundef nonnull align 8 dereferenceable(88) %0, i32 noundef 1)
  ret void
}